target datalayout = "e-m:e-p270:32:32-p271:32:32-p272:64:64-i64:64-i128:128-f80:128-n8:16:32:64-S128"
target triple = "x86_64-pc-linux-gnu"

%struct.strbuf_t = type { ptr, i64, i64, i32, i32, i32 }
%struct.json_config_t = type { [256 x i32], [256 x i8], %struct.strbuf_t, i32, i32, i32, i32, i32, i32, i32, i32, i32 }

@.str.11 = private unnamed_addr constant [5 x i8] c"null\00", align 1
@.str.57 = private unnamed_addr constant [23 x i8] c"must not be NaN or Inf\00", align 1
@.str.58 = private unnamed_addr constant [4 x i8] c"nan\00", align 1
@.str.63 = private unnamed_addr constant [24 x i8] c"Cannot serialise %s: %s\00", align 1

; Function Attrs: inlinehint nounwind uwtable
define internal i64 @strbuf_empty_length(ptr noundef %0) #4 {
  %2 = alloca ptr, align 8
  store ptr %0, ptr %2, align 8, !tbaa !15
  %3 = load ptr, ptr %2, align 8, !tbaa !15
  %4 = getelementptr inbounds nuw %struct.strbuf_t, ptr %3, i32 0, i32 1
  %5 = load i64, ptr %4, align 8, !tbaa !58
  %6 = load ptr, ptr %2, align 8, !tbaa !15
  %7 = getelementptr inbounds nuw %struct.strbuf_t, ptr %6, i32 0, i32 2
  %8 = load i64, ptr %7, align 8, !tbaa !48
  %9 = sub i64 %5, %8
  %10 = sub i64 %9, 1
  ret i64 %10
}

; Function Attrs: inlinehint nounwind uwtable
define internal void @strbuf_extend_length(ptr noundef %0, i64 noundef %1) #4 {
  %3 = alloca ptr, align 8
  %4 = alloca i64, align 8
  store ptr %0, ptr %3, align 8, !tbaa !15
  store i64 %1, ptr %4, align 8, !tbaa !20
  %5 = load i64, ptr %4, align 8, !tbaa !20
  %6 = load ptr, ptr %3, align 8, !tbaa !15
  %7 = getelementptr inbounds nuw %struct.strbuf_t, ptr %6, i32 0, i32 2
  %8 = load i64, ptr %7, align 8, !tbaa !48
  %9 = add i64 %8, %5
  store i64 %9, ptr %7, align 8, !tbaa !48
  ret void
}

; Function Attrs: inlinehint nounwind uwtable
define internal ptr @strbuf_empty_ptr(ptr noundef %0) #4 {
  %2 = alloca ptr, align 8
  store ptr %0, ptr %2, align 8, !tbaa !15
  %3 = load ptr, ptr %2, align 8, !tbaa !15
  %4 = getelementptr inbounds nuw %struct.strbuf_t, ptr %3, i32 0, i32 0
  %5 = load ptr, ptr %4, align 8, !tbaa !51
  %6 = load ptr, ptr %2, align 8, !tbaa !15
  %7 = getelementptr inbounds nuw %struct.strbuf_t, ptr %6, i32 0, i32 2
  %8 = load i64, ptr %7, align 8, !tbaa !48
  %9 = getelementptr inbounds nuw i8, ptr %5, i64 %8
  ret ptr %9
}

; Function Attrs: inlinehint nounwind uwtable
define internal void @strbuf_ensure_empty_length(ptr noundef %0, i64 noundef %1) #4 {
  %3 = alloca ptr, align 8
  %4 = alloca i64, align 8
  store ptr %0, ptr %3, align 8, !tbaa !15
  store i64 %1, ptr %4, align 8, !tbaa !20
  %5 = load i64, ptr %4, align 8, !tbaa !20
  %6 = load ptr, ptr %3, align 8, !tbaa !15
  %7 = call i64 @strbuf_empty_length(ptr noundef %6)
  %8 = icmp ugt i64 %5, %7
  br i1 %8, label %9, label %16

9:                                                ; preds = %2
  %10 = load ptr, ptr %3, align 8, !tbaa !15
  %11 = load ptr, ptr %3, align 8, !tbaa !15
  %12 = getelementptr inbounds nuw %struct.strbuf_t, ptr %11, i32 0, i32 2
  %13 = load i64, ptr %12, align 8, !tbaa !48
  %14 = load i64, ptr %4, align 8, !tbaa !20
  %15 = add i64 %13, %14
  call void @strbuf_resize(ptr noundef %10, i64 noundef %15)
  br label %16

16:                                               ; preds = %9, %2
  ret void
}

; Function Attrs: nounwind uwtable
define internal void @json_encode_exception(ptr noundef %0, ptr noundef %1, ptr noundef %2, i32 noundef %3, ptr noundef %4) #0 {
  %6 = alloca ptr, align 8
  %7 = alloca ptr, align 8
  %8 = alloca ptr, align 8
  %9 = alloca i32, align 4
  %10 = alloca ptr, align 8
  store ptr %0, ptr %6, align 8, !tbaa !4
  store ptr %1, ptr %7, align 8, !tbaa !15
  store ptr %2, ptr %8, align 8, !tbaa !15
  store i32 %3, ptr %9, align 4, !tbaa !9
  store ptr %4, ptr %10, align 8, !tbaa !11
  %11 = load ptr, ptr %7, align 8, !tbaa !15
  %12 = getelementptr inbounds nuw %struct.json_config_t, ptr %11, i32 0, i32 9
  %13 = load i32, ptr %12, align 8, !tbaa !16
  %14 = icmp ne i32 %13, 0
  br i1 %14, label %17, label %15

15:                                               ; preds = %5
  %16 = load ptr, ptr %8, align 8, !tbaa !15
  call void @strbuf_free(ptr noundef %16)
  br label %17

17:                                               ; preds = %15, %5
  %18 = load ptr, ptr %6, align 8, !tbaa !4
  %19 = load ptr, ptr %6, align 8, !tbaa !4
  %20 = load ptr, ptr %6, align 8, !tbaa !4
  %21 = load i32, ptr %9, align 4, !tbaa !9
  %22 = call i32 @lua_type(ptr noundef %20, i32 noundef %21)
  %23 = call ptr @lua_typename(ptr noundef %19, i32 noundef %22)
  %24 = load ptr, ptr %10, align 8, !tbaa !11
  %25 = call i32 (ptr, ptr, ...) @luaL_error(ptr noundef %18, ptr noundef @.str.63, ptr noundef %23, ptr noundef %24)
  ret void
}

; Function Attrs: nounwind uwtable
define internal void @json_append_number(ptr noundef %0, ptr noundef %1, ptr noundef %2, i32 noundef %3) #0 {
  %5 = alloca ptr, align 8
  %6 = alloca ptr, align 8
  %7 = alloca ptr, align 8
  %8 = alloca i32, align 4
  %9 = alloca double, align 8
  %10 = alloca i32, align 4
  %11 = alloca i32, align 4
  store ptr %0, ptr %5, align 8, !tbaa !4
  store ptr %1, ptr %6, align 8, !tbaa !15
  store ptr %2, ptr %7, align 8, !tbaa !15
  store i32 %3, ptr %8, align 4, !tbaa !9
  call void @llvm.lifetime.start.p0(i64 8, ptr %9) #9
  %12 = load ptr, ptr %5, align 8, !tbaa !4
  %13 = load i32, ptr %8, align 4, !tbaa !9
  %14 = call double @lua_tonumber(ptr noundef %12, i32 noundef %13)
  store double %14, ptr %9, align 8, !tbaa !53
  call void @llvm.lifetime.start.p0(i64 4, ptr %10) #9
  %15 = load ptr, ptr %6, align 8, !tbaa !15
  %16 = getelementptr inbounds nuw %struct.json_config_t, ptr %15, i32 0, i32 7
  %17 = load i32, ptr %16, align 8, !tbaa !35
  %18 = icmp eq i32 %17, 0
  br i1 %18, label %19, label %37

19:                                               ; preds = %4
  %20 = load double, ptr %9, align 8, !tbaa !53
  %21 = call double @llvm.fabs.f64(double %20) #11
  %22 = fcmp oeq double %21, 0x7FF0000000000000
  %23 = bitcast double %20 to i64
  %24 = icmp slt i64 %23, 0
  %25 = select i1 %24, i32 -1, i32 1
  %26 = select i1 %22, i32 %25, i32 0
  %27 = icmp ne i32 %26, 0
  br i1 %27, label %31, label %28

28:                                               ; preds = %19
  %29 = load double, ptr %9, align 8, !tbaa !53
  %30 = call i1 @llvm.is.fpclass.f64(double %29, i32 3)
  br i1 %30, label %31, label %36

31:                                               ; preds = %28, %19
  %32 = load ptr, ptr %5, align 8, !tbaa !4
  %33 = load ptr, ptr %6, align 8, !tbaa !15
  %34 = load ptr, ptr %7, align 8, !tbaa !15
  %35 = load i32, ptr %8, align 4, !tbaa !9
  call void @json_encode_exception(ptr noundef %32, ptr noundef %33, ptr noundef %34, i32 noundef %35, ptr noundef @.str.57)
  br label %36

36:                                               ; preds = %31, %28
  br label %64

37:                                               ; preds = %4
  %38 = load ptr, ptr %6, align 8, !tbaa !15
  %39 = getelementptr inbounds nuw %struct.json_config_t, ptr %38, i32 0, i32 7
  %40 = load i32, ptr %39, align 8, !tbaa !35
  %41 = icmp eq i32 %40, 1
  br i1 %41, label %42, label %48

42:                                               ; preds = %37
  %43 = load double, ptr %9, align 8, !tbaa !53
  %44 = call i1 @llvm.is.fpclass.f64(double %43, i32 3)
  br i1 %44, label %45, label %47

45:                                               ; preds = %42
  %46 = load ptr, ptr %7, align 8, !tbaa !15
  call void @strbuf_append_mem(ptr noundef %46, ptr noundef @.str.58, i64 noundef 3)
  store i32 1, ptr %11, align 4
  br label %76

47:                                               ; preds = %42
  br label %63

48:                                               ; preds = %37
  %49 = load double, ptr %9, align 8, !tbaa !53
  %50 = call double @llvm.fabs.f64(double %49) #11
  %51 = fcmp oeq double %50, 0x7FF0000000000000
  %52 = bitcast double %49 to i64
  %53 = icmp slt i64 %52, 0
  %54 = select i1 %53, i32 -1, i32 1
  %55 = select i1 %51, i32 %54, i32 0
  %56 = icmp ne i32 %55, 0
  br i1 %56, label %60, label %57

57:                                               ; preds = %48
  %58 = load double, ptr %9, align 8, !tbaa !53
  %59 = call i1 @llvm.is.fpclass.f64(double %58, i32 3)
  br i1 %59, label %60, label %62

60:                                               ; preds = %57, %48
  %61 = load ptr, ptr %7, align 8, !tbaa !15
  call void @strbuf_append_mem(ptr noundef %61, ptr noundef @.str.11, i64 noundef 4)
  store i32 1, ptr %11, align 4
  br label %76

62:                                               ; preds = %57
  br label %63

63:                                               ; preds = %62, %47
  br label %64

64:                                               ; preds = %63, %36
  %65 = load ptr, ptr %7, align 8, !tbaa !15
  call void @strbuf_ensure_empty_length(ptr noundef %65, i64 noundef 32)
  %66 = load ptr, ptr %7, align 8, !tbaa !15
  %67 = call ptr @strbuf_empty_ptr(ptr noundef %66)
  %68 = load double, ptr %9, align 8, !tbaa !53
  %69 = load ptr, ptr %6, align 8, !tbaa !15
  %70 = getelementptr inbounds nuw %struct.json_config_t, ptr %69, i32 0, i32 8
  %71 = load i32, ptr %70, align 4, !tbaa !37
  %72 = call i32 @fpconv_g_fmt(ptr noundef %67, double noundef %68, i32 noundef %71)
  store i32 %72, ptr %10, align 4, !tbaa !9
  %73 = load ptr, ptr %7, align 8, !tbaa !15
  %74 = load i32, ptr %10, align 4, !tbaa !9
  %75 = sext i32 %74 to i64
  call void @strbuf_extend_length(ptr noundef %73, i64 noundef %75)
  store i32 0, ptr %11, align 4
  br label %76

76:                                               ; preds = %64, %60, %45
  call void @llvm.lifetime.end.p0(i64 4, ptr %10) #9
  call void @llvm.lifetime.end.p0(i64 8, ptr %9) #9
  %77 = load i32, ptr %11, align 4
  switch i32 %77, label %79 [
    i32 0, label %78
    i32 1, label %78
  ]

78:                                               ; preds = %76, %76
  ret void

79:                                               ; preds = %76
  unreachable
}