; Function Attrs: nounwind uwtable
define internal fastcc void @json_append_number(ptr noundef %0, ptr noundef readonly captures(none) %1, ptr noundef %2, i32 noundef range(i32 -2, 0) %3) unnamed_addr #0 {
  %5 = tail call double @lua_tonumber(ptr noundef %0, i32 noundef %3) #12
  %6 = getelementptr inbounds nuw i8, ptr %1, i64 1336
  %7 = load i32, ptr %6, align 8, !tbaa !17
  switch i32 %7, label %19 [
    i32 0, label %8
    i32 1, label %16
  ]

8:                                                ; preds = %4
  %9 = tail call double @llvm.fabs.f64(double %5)
  %or.cond = fcmp ueq double %9, 0x7FF0000000000000
  br i1 %or.cond, label %10, label %33

10:                                               ; preds = %8
  %11 = getelementptr i8, ptr %1, i64 1344
  %.val = load i32, ptr %11, align 8, !tbaa !19
  %.not.i = icmp eq i32 %.val, 0
  br i1 %.not.i, label %12, label %json_encode_exception.exit

12:                                               ; preds = %10
  tail call void @strbuf_free(ptr noundef %2) #12
  br label %json_encode_exception.exit

json_encode_exception.exit:                       ; preds = %10, %12
  %13 = tail call i32 @lua_type(ptr noundef %0, i32 noundef range(i32 -2, 0) %3) #12
  %14 = tail call ptr @lua_typename(ptr noundef %0, i32 noundef %13) #12
  %15 = tail call i32 (ptr, ptr, ...) @luaL_error(ptr noundef %0, ptr noundef nonnull @.str.63, ptr noundef %14, ptr noundef nonnull @.str.57) #12
  br label %33

16:                                               ; preds = %4
  %17 = fcmp uno double %5, 0.000000e+00
  br i1 %17, label %18, label %33

18:                                               ; preds = %16
  tail call fastcc void @strbuf_append_mem(ptr noundef %2, ptr noundef nonnull @.str.58, i64 noundef 3)
  br label %47

19:                                               ; preds = %4
  %20 = tail call double @llvm.fabs.f64(double %5)
  %or.cond20 = fcmp ueq double %20, 0x7FF0000000000000
  br i1 %or.cond20, label %21, label %33

21:                                               ; preds = %19
  %22 = getelementptr i8, ptr %2, i64 8
  %.val.i.i = load i64, ptr %22, align 8, !tbaa !44
  %23 = getelementptr i8, ptr %2, i64 16
  %.val4.i.i = load i64, ptr %23, align 8, !tbaa !32
  %24 = sub i64 %.val4.i.i, %.val.i.i
  %25 = icmp ugt i64 %24, -5
  br i1 %25, label %26, label %strbuf_append_mem.exit

26:                                               ; preds = %21
  %27 = add i64 %.val4.i.i, 4
  tail call void @strbuf_resize(ptr noundef nonnull %2, i64 noundef %27) #12
  %.pre.i = load i64, ptr %23, align 8, !tbaa !32
  br label %strbuf_append_mem.exit

strbuf_append_mem.exit:                           ; preds = %21, %26
  %28 = phi i64 [ %.val4.i.i, %21 ], [ %.pre.i, %26 ]
  %29 = load ptr, ptr %2, align 8, !tbaa !33
  %30 = getelementptr inbounds nuw i8, ptr %29, i64 %28
  store i32 1819047278, ptr %30, align 1
  %31 = load i64, ptr %23, align 8, !tbaa !32
  %32 = add i64 %31, 4
  store i64 %32, ptr %23, align 8, !tbaa !32
  br label %47

33:                                               ; preds = %19, %8, %16, %json_encode_exception.exit
  %34 = getelementptr i8, ptr %2, i64 8
  %.val.i = load i64, ptr %34, align 8, !tbaa !44
  %35 = getelementptr i8, ptr %2, i64 16
  %.val4.i = load i64, ptr %35, align 8, !tbaa !32
  %36 = sub i64 %.val4.i, %.val.i
  %37 = icmp ugt i64 %36, -33
  br i1 %37, label %38, label %strbuf_ensure_empty_length.exit

38:                                               ; preds = %33
  %39 = add i64 %.val4.i, 32
  tail call void @strbuf_resize(ptr noundef nonnull %2, i64 noundef %39) #12
  %.val22.pre = load i64, ptr %35, align 8, !tbaa !32
  br label %strbuf_ensure_empty_length.exit

strbuf_ensure_empty_length.exit:                  ; preds = %33, %38
  %.val22 = phi i64 [ %.val4.i, %33 ], [ %.val22.pre, %38 ]
  %.val21 = load ptr, ptr %2, align 8, !tbaa !33
  %40 = getelementptr inbounds nuw i8, ptr %.val21, i64 %.val22
  %41 = getelementptr inbounds nuw i8, ptr %1, i64 1340
  %42 = load i32, ptr %41, align 4, !tbaa !20
  %43 = tail call i32 @fpconv_g_fmt(ptr noundef %40, double noundef %5, i32 noundef %42) #12
  %44 = sext i32 %43 to i64
  %45 = load i64, ptr %35, align 8, !tbaa !32
  %46 = add i64 %45, %44
  store i64 %46, ptr %35, align 8, !tbaa !32
  br label %47

47:                                               ; preds = %strbuf_ensure_empty_length.exit, %strbuf_append_mem.exit, %18
  ret void
}